target datalayout = "e-m:e-p270:32:32-p271:32:32-p272:64:64-i64:64-i128:128-f80:128-n8:16:32:64-S128"
target triple = "x86_64-pc-linux-gnu"

@.str = private unnamed_addr constant [5 x i8] c"auto\00", align 1
@.str.1 = private unnamed_addr constant [11 x i8] c"flex-start\00", align 1
@.str.2 = private unnamed_addr constant [7 x i8] c"center\00", align 1
@.str.3 = private unnamed_addr constant [9 x i8] c"flex-end\00", align 1
@.str.4 = private unnamed_addr constant [8 x i8] c"stretch\00", align 1
@.str.5 = private unnamed_addr constant [9 x i8] c"baseline\00", align 1
@.str.6 = private unnamed_addr constant [14 x i8] c"space-between\00", align 1
@.str.7 = private unnamed_addr constant [13 x i8] c"space-around\00", align 1
@.str.8 = private unnamed_addr constant [13 x i8] c"space-evenly\00", align 1
@.str.9 = private unnamed_addr constant [8 x i8] c"unknown\00", align 1

; Function Attrs: mustprogress nounwind uwtable
define ptr @YGAlignToString(i32 noundef %0) #0 {
  %2 = alloca ptr, align 8
  %3 = alloca i32, align 4
  store i32 %0, ptr %3, align 4, !tbaa !4
  %4 = load i32, ptr %3, align 4, !tbaa !4
  switch i32 %4, label %14 [
    i32 0, label %5
    i32 1, label %6
    i32 2, label %7
    i32 3, label %8
    i32 4, label %9
    i32 5, label %10
    i32 6, label %11
    i32 7, label %12
    i32 8, label %13
  ]

5:                                                ; preds = %1
  store ptr @.str, ptr %2, align 8
  br label %15

6:                                                ; preds = %1
  store ptr @.str.1, ptr %2, align 8
  br label %15

7:                                                ; preds = %1
  store ptr @.str.2, ptr %2, align 8
  br label %15

8:                                                ; preds = %1
  store ptr @.str.3, ptr %2, align 8
  br label %15

9:                                                ; preds = %1
  store ptr @.str.4, ptr %2, align 8
  br label %15

10:                                               ; preds = %1
  store ptr @.str.5, ptr %2, align 8
  br label %15

11:                                               ; preds = %1
  store ptr @.str.6, ptr %2, align 8
  br label %15

12:                                               ; preds = %1
  store ptr @.str.7, ptr %2, align 8
  br label %15

13:                                               ; preds = %1
  store ptr @.str.8, ptr %2, align 8
  br label %15

14:                                               ; preds = %1
  store ptr @.str.9, ptr %2, align 8
  br label %15

15:                                               ; preds = %14, %13, %12, %11, %10, %9, %8, %7, %6, %5
  %16 = load ptr, ptr %2, align 8
  ret ptr %16
}